; Function Attrs: mustprogress uwtable
define void @_ZN5arrow3ipc23RecordBatchStreamReader4OpenERKSt10shared_ptrINS_2io11InputStreamEERKNS0_14IpcReadOptionsE(ptr noalias sret(%"class.arrow::Result.43") align 8 %agg.result, ptr noundef nonnull align 8 dereferenceable(16) %stream, ptr noundef nonnull align 8 dereferenceable(80) %options) local_unnamed_addr #0 align 2 personality ptr @__gxx_personality_v0 {
entry:
  %agg.tmp = alloca %"class.std::unique_ptr.47", align 8
  call void @_ZN5arrow3ipc13MessageReader4OpenERKSt10shared_ptrINS_2io11InputStreamEE(ptr nonnull sret(%"class.std::unique_ptr.47") align 8 %agg.tmp, ptr noundef nonnull align 8 dereferenceable(16) %stream)
  invoke void @_ZN5arrow3ipc23RecordBatchStreamReader4OpenESt10unique_ptrINS0_13MessageReaderESt14default_deleteIS3_EERKNS0_14IpcReadOptionsE(ptr sret(%"class.arrow::Result.43") align 8 %agg.result, ptr noundef nonnull %agg.tmp, ptr noundef nonnull align 8 dereferenceable(80) %options)
          to label %invoke.cont unwind label %lpad

invoke.cont:                                      ; preds = %entry
  %0 = load ptr, ptr %agg.tmp, align 8
  %cmp.not.i = icmp eq ptr %0, null
  br i1 %cmp.not.i, label %_ZNSt10unique_ptrIN5arrow3ipc13MessageReaderESt14default_deleteIS2_EED2Ev.exit, label %_ZNKSt14default_deleteIN5arrow3ipc13MessageReaderEEclEPS2_.exit.i

_ZNKSt14default_deleteIN5arrow3ipc13MessageReaderEEclEPS2_.exit.i: ; preds = %invoke.cont
  %vtable.i.i = load ptr, ptr %0, align 8
  %vfn.i.i = getelementptr inbounds i8, ptr %vtable.i.i, i64 8
  %1 = load ptr, ptr %vfn.i.i, align 8
  call void %1(ptr noundef nonnull align 8 dereferenceable(8) %0) #30
  br label %_ZNSt10unique_ptrIN5arrow3ipc13MessageReaderESt14default_deleteIS2_EED2Ev.exit

_ZNSt10unique_ptrIN5arrow3ipc13MessageReaderESt14default_deleteIS2_EED2Ev.exit: ; preds = %invoke.cont, %_ZNKSt14default_deleteIN5arrow3ipc13MessageReaderEEclEPS2_.exit.i
  ret void

lpad:                                             ; preds = %entry
  %2 = landingpad { ptr, i32 }
          cleanup
  %3 = load ptr, ptr %agg.tmp, align 8
  %cmp.not.i1 = icmp eq ptr %3, null
  br i1 %cmp.not.i1, label %_ZNSt10unique_ptrIN5arrow3ipc13MessageReaderESt14default_deleteIS2_EED2Ev.exit5, label %_ZNKSt14default_deleteIN5arrow3ipc13MessageReaderEEclEPS2_.exit.i2

_ZNKSt14default_deleteIN5arrow3ipc13MessageReaderEEclEPS2_.exit.i2: ; preds = %lpad
  %vtable.i.i3 = load ptr, ptr %3, align 8
  %vfn.i.i4 = getelementptr inbounds i8, ptr %vtable.i.i3, i64 8
  %4 = load ptr, ptr %vfn.i.i4, align 8
  call void %4(ptr noundef nonnull align 8 dereferenceable(8) %3) #30
  br label %_ZNSt10unique_ptrIN5arrow3ipc13MessageReaderESt14default_deleteIS2_EED2Ev.exit5

_ZNSt10unique_ptrIN5arrow3ipc13MessageReaderESt14default_deleteIS2_EED2Ev.exit5: ; preds = %lpad, %_ZNKSt14default_deleteIN5arrow3ipc13MessageReaderEEclEPS2_.exit.i2
  resume { ptr, i32 } %2
}